target datalayout = "e-m:e-p270:32:32-p271:32:32-p272:64:64-i64:64-i128:128-f80:128-n8:16:32:64-S128"
target triple = "x86_64-pc-linux-gnu"

%struct._GdkRGBA = type { double, double, double, double }
%struct.darktable_t = type { %struct.dt_codepath_t, i32, i32, ptr, ptr, ptr, ptr, ptr, ptr, ptr, ptr, ptr, ptr, ptr, ptr, ptr, ptr, ptr, ptr, ptr, ptr, ptr, ptr, ptr, ptr, ptr, ptr, ptr, ptr, ptr, [64 x %struct.dt_pthread_mutex_t], %struct.dt_pthread_mutex_t, %struct.dt_pthread_mutex_t, %struct.dt_pthread_mutex_t, %struct.dt_pthread_mutex_t, %struct.dt_pthread_mutex_t, ptr, ptr, ptr, ptr, ptr, ptr, ptr, ptr, ptr, ptr, ptr, ptr, ptr, %struct.dt_lua_state_t, ptr, double, ptr, i32, [47 x i32], i32, i32, ptr, ptr, %struct.dt_sys_resources_t, %struct.dt_backthumb_t, %struct.dt_gimp_t }
%struct.dt_codepath_t = type { i8, [3 x i8] }
%struct.dt_pthread_mutex_t = type { %union.pthread_mutex_t }
%union.pthread_mutex_t = type { %struct.__pthread_mutex_s }
%struct.__pthread_mutex_s = type { i32, i32, i32, i32, i32, i16, i16, %struct.__pthread_internal_list }
%struct.__pthread_internal_list = type { ptr, ptr }
%struct.dt_lua_state_t = type { i32 }
%struct.dt_sys_resources_t = type { i64, i64, ptr, ptr, i32 }
%struct.dt_backthumb_t = type { double, double, i32, i32, i32, i32 }
%struct.dt_gimp_t = type { i32, ptr, ptr, i32, i32 }
%struct.dt_iop_module_t = type { i32, ptr, ptr, ptr, ptr, ptr, ptr, ptr, ptr, ptr, ptr, ptr, ptr, ptr, ptr, ptr, ptr, ptr, ptr, ptr, ptr, ptr, ptr, ptr, ptr, ptr, ptr, ptr, ptr, ptr, ptr, ptr, ptr, ptr, ptr, ptr, ptr, ptr, ptr, ptr, ptr, ptr, ptr, ptr, ptr, ptr, ptr, ptr, ptr, ptr, ptr, ptr, ptr, ptr, ptr, ptr, ptr, [20 x i8], i32, i32, i32, i32, i32, i32, i32, [8 x i8], [4 x float], [4 x float], [4 x float], [4 x float], [4 x float], [4 x float], ptr, %struct.dt_dev_histogram_stats_t, [4 x i32], i32, i32, ptr, i32, i32, ptr, ptr, i32, ptr, %struct.dt_pthread_mutex_t, ptr, ptr, ptr, ptr, %struct.anon, ptr, ptr, ptr, ptr, ptr, ptr, ptr, i32, ptr, ptr, ptr, ptr, ptr, ptr, ptr, i32, ptr, i32, [128 x i8], i32, ptr, ptr, i32, [12 x i8] }
%struct.dt_dev_histogram_stats_t = type { i32, i64, i32, i32 }
%struct.anon = type { %struct.anon.0, %struct.anon.1 }
%struct.anon.0 = type { ptr, ptr }
%struct.anon.1 = type { ptr, i32 }
%struct.dt_iop_gui_blend_data_t = type { i32, i32, i32, i32, i32, i32, i32, ptr, ptr, ptr, ptr, ptr, ptr, ptr, ptr, ptr, ptr, ptr, ptr, ptr, [2 x %struct.dt_iop_gui_blendif_filter_t], ptr, ptr, ptr, ptr, ptr, ptr, ptr, ptr, ptr, ptr, ptr, ptr, i32, i32, ptr, i32, [8 x [2 x i32]], i32, i32, ptr, i32, ptr, ptr, ptr, [5 x ptr], [5 x i32], ptr, ptr, ptr, i32, ptr, ptr, i32, %struct.dt_pthread_mutex_t }
%struct.dt_iop_gui_blendif_filter_t = type { ptr, ptr, [4 x ptr], ptr, ptr, ptr }
%struct.dt_gui_gtk_t = type { ptr, %struct.dt_gui_widgets_t, %struct.dt_gui_scrollbars_t, i32, ptr, i32, [39 x %struct._GdkRGBA], i32, i32, i32, i32, i32, double, double, double, double, ptr, double, double, double, double, i32, i32, [4096 x i8], i32, i32, i32, %struct.dt_pthread_mutex_t }
%struct.dt_gui_widgets_t = type { ptr, ptr, ptr, ptr, i32, i32, i32 }
%struct.dt_gui_scrollbars_t = type { ptr, ptr, i32 }
%struct.dt_develop_t = type { i32, i32, i32, ptr, double, double, i32, i32, i32, i32, i32, double, i32, i32, i32, ptr, ptr, [8 x i8], %struct.dt_image_t, i32, i32, %struct.dt_pthread_mutex_t, i32, ptr, i32, ptr, i32, ptr, ptr, i32, ptr, ptr, ptr, ptr, i32, i32, ptr, ptr, ptr, ptr, i32, i32, i32, float, float, ptr, i32, %struct.anon.8, %struct.dt_dev_chroma_t, %struct.anon.11, %struct.anon.12, %struct.anon.13, %struct.anon.14, %struct.anon.15, %struct.anon.16, ptr, ptr, %struct.dt_dev_viewport_t, %struct.dt_dev_viewport_t, i32, i32, i32, ptr, [8 x i8] }
%struct.dt_image_t = type { i32, i32, float, float, float, float, float, float, float, [64 x i8], [64 x i8], [128 x i8], [64 x i8], [64 x i8], [64 x i8], [64 x i8], i64, i32, %union.dt_image_correction_data_t, [64 x i8], [64 x i8], [64 x i8], [128 x i8], i32, [256 x i8], i32, i32, i32, i32, i32, i32, i32, i32, i32, i32, float, i32, i32, i32, i32, i32, i32, i64, i64, i64, i64, i32, [12 x i8], %struct.dt_iop_buffer_dsc_t, [9 x float], ptr, i32, i32, %struct.dt_image_raw_parameters_t, %struct.dt_image_geoloc_t, %struct._color_harmony_t, i16, [4 x i16], i32, i32, float, float, [4 x float], [4 x [3 x float]], [4 x float], ptr, ptr, i32, i32, [8 x i8] }
%union.dt_image_correction_data_t = type { %struct.anon.3 }
%struct.anon.3 = type { i32, float, [11 x float], [11 x float], [11 x float], [11 x float], [11 x float] }
%struct.dt_iop_buffer_dsc_t = type { i32, i32, i32, [6 x [6 x i8]], %struct.anon.6, [12 x i8], %struct.anon.7, [4 x float], i32, [12 x i8] }
%struct.anon.6 = type { i16, i16 }
%struct.anon.7 = type { i32, [12 x i8], [4 x float] }
%struct.dt_image_raw_parameters_t = type { i32 }
%struct.dt_image_geoloc_t = type { double, double, double }
%struct._color_harmony_t = type { i32, i32, i32 }
%struct.anon.8 = type { %struct.dt_dev_proxy_exposure_t, ptr, %struct.anon.9, %struct.anon.10 }
%struct.dt_dev_proxy_exposure_t = type { ptr, ptr, ptr, ptr }
%struct.anon.9 = type { ptr, ptr, ptr, ptr, ptr, ptr, ptr, ptr, ptr }
%struct.anon.10 = type { ptr, ptr, ptr, ptr, ptr }
%struct.dt_dev_chroma_t = type { ptr, ptr, [4 x double], [4 x double], [4 x double], i32 }
%struct.anon.11 = type { ptr, ptr, ptr }
%struct.anon.12 = type { ptr, ptr, i32, i32, float, float, i32 }
%struct.anon.13 = type { ptr, ptr, i32, i32, i32, float }
%struct.anon.14 = type { ptr }
%struct.anon.15 = type { ptr, i32 }
%struct.anon.16 = type { ptr, ptr, ptr }
%struct.dt_dev_viewport_t = type { ptr, i32, i32, i32, i32, i32, double, double, double, i32, i32, i32, float, float, float, ptr }
%struct.dt_masks_form_gui_t = type { ptr, ptr, ptr, i32, float, float, float, float, float, float, float, float, i32, i32, i32, i32, i32, i32, i32, i32, i32, i32, i32, i32, i32, i32, i32, i32, i32, i32, i32, i32, i32, i32, float, float, i32, i32, i32, i32, i32, i32, ptr, ptr, i32, i32, i64 }
%struct._GdkEventButton = type { i32, ptr, i8, i32, double, double, ptr, i32, i32, ptr, double, double }

@darktable = external global %struct.darktable_t, align 8
@dt_modifier_shortcuts = external global i32, align 4

; Function Attrs: inlinehint nounwind uwtable
define internal i32 @dt_modifier_is(i32 noundef %0, i32 noundef %1) #3 {
  %3 = alloca i32, align 4
  %4 = alloca i32, align 4
  %5 = alloca i32, align 4
  store i32 %0, ptr %3, align 4, !tbaa !80
  store i32 %1, ptr %4, align 4, !tbaa !80
  call void @llvm.lifetime.start.p0(i64 4, ptr %5) #11
  %6 = call i32 @gtk_accelerator_get_default_mod_mask()
  store i32 %6, ptr %5, align 4, !tbaa !80
  %7 = load i32, ptr %3, align 4, !tbaa !80
  %8 = load i32, ptr @dt_modifier_shortcuts, align 4, !tbaa !80
  %9 = or i32 %7, %8
  %10 = load i32, ptr %5, align 4, !tbaa !80
  %11 = and i32 %9, %10
  %12 = load i32, ptr %4, align 4, !tbaa !80
  %13 = icmp eq i32 %11, %12
  %14 = zext i1 %13 to i32
  call void @llvm.lifetime.end.p0(i64 4, ptr %5) #11
  ret i32 %14
}

; Function Attrs: nounwind uwtable
define internal i32 @_blendop_masks_add_shape(ptr noundef %0, ptr noundef %1, ptr noundef %2) #0 {
  %4 = alloca i32, align 4
  %5 = alloca ptr, align 8
  %6 = alloca ptr, align 8
  %7 = alloca ptr, align 8
  %8 = alloca ptr, align 8
  %9 = alloca i32, align 4
  %10 = alloca i32, align 4
  %11 = alloca i32, align 4
  %12 = alloca i32, align 4
  %13 = alloca i32, align 4
  %14 = alloca ptr, align 8
  store ptr %0, ptr %5, align 8, !tbaa !11
  store ptr %1, ptr %6, align 8, !tbaa !172
  store ptr %2, ptr %7, align 8, !tbaa !6
  %15 = load ptr, ptr getelementptr inbounds nuw (%struct.darktable_t, ptr @darktable, i32 0, i32 14), align 8, !tbaa !39
  %16 = getelementptr inbounds nuw %struct.dt_gui_gtk_t, ptr %15, i32 0, i32 5
  %17 = load i32, ptr %16, align 8, !tbaa !72
  %18 = icmp ne i32 %17, 0
  br i1 %18, label %24, label %19

19:                                               ; preds = %3
  %20 = load ptr, ptr %6, align 8, !tbaa !172
  %21 = getelementptr inbounds nuw %struct._GdkEventButton, ptr %20, i32 0, i32 8
  %22 = load i32, ptr %21, align 4, !tbaa !212
  %23 = icmp ne i32 %22, 1
  br i1 %23, label %24, label %25

24:                                               ; preds = %19, %3
  store i32 1, ptr %4, align 4
  br label %116

25:                                               ; preds = %19
  call void @llvm.lifetime.start.p0(i64 8, ptr %8) #11
  %26 = load ptr, ptr %7, align 8, !tbaa !6
  %27 = getelementptr inbounds nuw %struct.dt_iop_module_t, ptr %26, i32 0, i32 88
  %28 = load ptr, ptr %27, align 8, !tbaa !15
  store ptr %28, ptr %8, align 8, !tbaa !31
  call void @llvm.lifetime.start.p0(i64 4, ptr %9) #11
  %29 = load ptr, ptr %6, align 8, !tbaa !172
  %30 = getelementptr inbounds nuw %struct._GdkEventButton, ptr %29, i32 0, i32 7
  %31 = load i32, ptr %30, align 8, !tbaa !216
  %32 = call i32 @dt_modifier_is(i32 noundef %31, i32 noundef 4)
  store i32 %32, ptr %9, align 4, !tbaa !80
  call void @llvm.lifetime.start.p0(i64 4, ptr %10) #11
  store i32 -1, ptr %10, align 4, !tbaa !80
  call void @llvm.lifetime.start.p0(i64 4, ptr %11) #11
  store i32 0, ptr %11, align 4, !tbaa !80
  br label %33

33:                                               ; preds = %49, %25
  %34 = load i32, ptr %11, align 4, !tbaa !80
  %35 = icmp slt i32 %34, 5
  br i1 %35, label %37, label %36

36:                                               ; preds = %33
  store i32 2, ptr %12, align 4
  br label %52

37:                                               ; preds = %33
  %38 = load ptr, ptr %5, align 8, !tbaa !11
  %39 = load ptr, ptr %8, align 8, !tbaa !31
  %40 = getelementptr inbounds nuw %struct.dt_iop_gui_blend_data_t, ptr %39, i32 0, i32 45
  %41 = load i32, ptr %11, align 4, !tbaa !80
  %42 = sext i32 %41 to i64
  %43 = getelementptr inbounds [5 x ptr], ptr %40, i64 0, i64 %42
  %44 = load ptr, ptr %43, align 8, !tbaa !11
  %45 = icmp eq ptr %38, %44
  br i1 %45, label %46, label %48

46:                                               ; preds = %37
  %47 = load i32, ptr %11, align 4, !tbaa !80
  store i32 %47, ptr %10, align 4, !tbaa !80
  store i32 2, ptr %12, align 4
  br label %52

48:                                               ; preds = %37
  br label %49

49:                                               ; preds = %48
  %50 = load i32, ptr %11, align 4, !tbaa !80
  %51 = add nsw i32 %50, 1
  store i32 %51, ptr %11, align 4, !tbaa !80
  br label %33

52:                                               ; preds = %46, %36
  call void @llvm.lifetime.end.p0(i64 4, ptr %11) #11
  br label %53

53:                                               ; preds = %52
  %54 = load i32, ptr %10, align 4, !tbaa !80
  %55 = icmp slt i32 %54, 0
  br i1 %55, label %56, label %57

56:                                               ; preds = %53
  store i32 0, ptr %4, align 4
  store i32 1, ptr %12, align 4
  br label %115

57:                                               ; preds = %53
  %58 = load ptr, ptr %7, align 8, !tbaa !6
  %59 = call i32 @_blendop_masks_modes_toggle(ptr noundef null, ptr noundef %58, i32 noundef 2)
  call void @llvm.lifetime.start.p0(i64 4, ptr %13) #11
  store i32 0, ptr %13, align 4, !tbaa !80
  br label %60

60:                                               ; preds = %73, %57
  %61 = load i32, ptr %13, align 4, !tbaa !80
  %62 = icmp slt i32 %61, 5
  br i1 %62, label %64, label %63

63:                                               ; preds = %60
  store i32 5, ptr %12, align 4
  call void @llvm.lifetime.end.p0(i64 4, ptr %13) #11
  br label %76

64:                                               ; preds = %60
  %65 = load ptr, ptr %8, align 8, !tbaa !31
  %66 = getelementptr inbounds nuw %struct.dt_iop_gui_blend_data_t, ptr %65, i32 0, i32 45
  %67 = load i32, ptr %13, align 4, !tbaa !80
  %68 = sext i32 %67 to i64
  %69 = getelementptr inbounds [5 x ptr], ptr %66, i64 0, i64 %68
  %70 = load ptr, ptr %69, align 8, !tbaa !11
  %71 = call i64 @gtk_toggle_button_get_type() #12
  %72 = call ptr @g_type_check_instance_cast(ptr noundef %70, i64 noundef %71)
  call void @gtk_toggle_button_set_active(ptr noundef %72, i32 noundef 0)
  br label %73

73:                                               ; preds = %64
  %74 = load i32, ptr %13, align 4, !tbaa !80
  %75 = add nsw i32 %74, 1
  store i32 %75, ptr %13, align 4, !tbaa !80
  br label %60

76:                                               ; preds = %63
  %77 = load ptr, ptr %7, align 8, !tbaa !6
  call void @dt_iop_request_focus(ptr noundef %77)
  %78 = load ptr, ptr %7, align 8, !tbaa !6
  call void @dt_iop_color_picker_reset(ptr noundef %78, i32 noundef 0)
  %79 = load ptr, ptr %8, align 8, !tbaa !31
  %80 = getelementptr inbounds nuw %struct.dt_iop_gui_blend_data_t, ptr %79, i32 0, i32 50
  store i32 1, ptr %80, align 8, !tbaa !199
  %81 = load ptr, ptr %5, align 8, !tbaa !11
  %82 = call i64 @gtk_toggle_button_get_type() #12
  %83 = call ptr @g_type_check_instance_cast(ptr noundef %81, i64 noundef %82)
  call void @gtk_toggle_button_set_active(ptr noundef %83, i32 noundef 1)
  %84 = load ptr, ptr %8, align 8, !tbaa !31
  %85 = getelementptr inbounds nuw %struct.dt_iop_gui_blend_data_t, ptr %84, i32 0, i32 47
  %86 = load ptr, ptr %85, align 8, !tbaa !200
  %87 = call i64 @gtk_toggle_button_get_type() #12
  %88 = call ptr @g_type_check_instance_cast(ptr noundef %86, i64 noundef %87)
  call void @gtk_toggle_button_set_active(ptr noundef %88, i32 noundef 0)
  call void @llvm.lifetime.start.p0(i64 8, ptr %14) #11
  %89 = load ptr, ptr %8, align 8, !tbaa !31
  %90 = getelementptr inbounds nuw %struct.dt_iop_gui_blend_data_t, ptr %89, i32 0, i32 46
  %91 = load i32, ptr %10, align 4, !tbaa !80
  %92 = sext i32 %91 to i64
  %93 = getelementptr inbounds [5 x i32], ptr %90, i64 0, i64 %92
  %94 = load i32, ptr %93, align 4, !tbaa !80
  %95 = call ptr @dt_masks_create(i32 noundef %94)
  store ptr %95, ptr %14, align 8, !tbaa !193
  %96 = load ptr, ptr %14, align 8, !tbaa !193
  call void @dt_masks_change_form_gui(ptr noundef %96)
  %97 = load ptr, ptr %7, align 8, !tbaa !6
  %98 = load ptr, ptr getelementptr inbounds nuw (%struct.darktable_t, ptr @darktable, i32 0, i32 9), align 8, !tbaa !132
  %99 = getelementptr inbounds nuw %struct.dt_develop_t, ptr %98, i32 0, i32 38
  %100 = load ptr, ptr %99, align 8, !tbaa !202
  %101 = getelementptr inbounds nuw %struct.dt_masks_form_gui_t, ptr %100, i32 0, i32 42
  store ptr %97, ptr %101, align 8, !tbaa !207
  %102 = load i32, ptr %9, align 4, !tbaa !80
  %103 = icmp ne i32 %102, 0
  br i1 %103, label %104, label %114

104:                                              ; preds = %76
  %105 = load ptr, ptr getelementptr inbounds nuw (%struct.darktable_t, ptr @darktable, i32 0, i32 9), align 8, !tbaa !132
  %106 = getelementptr inbounds nuw %struct.dt_develop_t, ptr %105, i32 0, i32 38
  %107 = load ptr, ptr %106, align 8, !tbaa !202
  %108 = getelementptr inbounds nuw %struct.dt_masks_form_gui_t, ptr %107, i32 0, i32 40
  store i32 1, ptr %108, align 4, !tbaa !210
  %109 = load ptr, ptr %7, align 8, !tbaa !6
  %110 = load ptr, ptr getelementptr inbounds nuw (%struct.darktable_t, ptr @darktable, i32 0, i32 9), align 8, !tbaa !132
  %111 = getelementptr inbounds nuw %struct.dt_develop_t, ptr %110, i32 0, i32 38
  %112 = load ptr, ptr %111, align 8, !tbaa !202
  %113 = getelementptr inbounds nuw %struct.dt_masks_form_gui_t, ptr %112, i32 0, i32 43
  store ptr %109, ptr %113, align 8, !tbaa !211
  br label %114

114:                                              ; preds = %104, %76
  call void (...) @dt_control_queue_redraw_center()
  store i32 1, ptr %4, align 4
  store i32 1, ptr %12, align 4
  call void @llvm.lifetime.end.p0(i64 8, ptr %14) #11
  br label %115

115:                                              ; preds = %114, %56
  call void @llvm.lifetime.end.p0(i64 4, ptr %10) #11
  call void @llvm.lifetime.end.p0(i64 4, ptr %9) #11
  call void @llvm.lifetime.end.p0(i64 8, ptr %8) #11
  br label %116

116:                                              ; preds = %115, %24
  %117 = load i32, ptr %4, align 4
  ret i32 %117
}