; Function Attrs: nounwind uwtable
define internal range(i32 0, 2) i32 @_blendop_masks_add_shape(ptr noundef %0, ptr noundef readonly captures(none) %1, ptr noundef %2) #0 {
  %4 = load ptr, ptr getelementptr inbounds nuw (i8, ptr @darktable, i64 104), align 8, !tbaa !33
  %5 = getelementptr inbounds nuw i8, ptr %4, i64 96
  %6 = load i32, ptr %5, align 8, !tbaa !66
  %.not = icmp eq i32 %6, 0
  br i1 %.not, label %7, label %.thread

7:                                                ; preds = %3
  %8 = getelementptr inbounds nuw i8, ptr %1, i64 52
  %9 = load i32, ptr %8, align 4, !tbaa !184
  %.not29 = icmp eq i32 %9, 1
  br i1 %.not29, label %10, label %.thread

10:                                               ; preds = %7
  %11 = getelementptr inbounds nuw i8, ptr %2, i64 776
  %12 = load ptr, ptr %11, align 8, !tbaa !6
  %13 = getelementptr inbounds nuw i8, ptr %1, i64 48
  %14 = load i32, ptr %13, align 8, !tbaa !188
  %15 = tail call i32 @gtk_accelerator_get_default_mod_mask() #18
  %16 = load i32, ptr @dt_modifier_shortcuts, align 4, !tbaa !77
  %17 = or i32 %16, %14
  %18 = and i32 %17, %15
  %.not32 = icmp eq i32 %18, 4
  %19 = getelementptr inbounds nuw i8, ptr %12, i64 512
  br label %20

20:                                               ; preds = %10, %24
  %indvars.iv = phi i64 [ 0, %10 ], [ %indvars.iv.next, %24 ]
  %21 = getelementptr inbounds nuw [5 x ptr], ptr %19, i64 0, i64 %indvars.iv
  %22 = load ptr, ptr %21, align 8, !tbaa !179
  %23 = icmp eq ptr %0, %22
  br i1 %23, label %25, label %24

24:                                               ; preds = %20
  %indvars.iv.next = add nuw nsw i64 %indvars.iv, 1
  %exitcond.not = icmp eq i64 %indvars.iv.next, 5
  br i1 %exitcond.not, label %.thread, label %20

25:                                               ; preds = %20
  %26 = tail call fastcc i32 @_blendop_masks_modes_toggle(ptr noundef null, ptr noundef %2, i32 noundef 2)
  %27 = tail call i64 @gtk_toggle_button_get_type() #19
  br label %43

28:                                               ; preds = %43
  tail call void @dt_iop_request_focus(ptr noundef %2) #18
  tail call void @dt_iop_color_picker_reset(ptr noundef %2, i32 noundef 0) #18
  %29 = getelementptr inbounds nuw i8, ptr %12, i64 600
  store i32 1, ptr %29, align 8, !tbaa !170
  %30 = tail call ptr @g_type_check_instance_cast(ptr noundef %0, i64 noundef %27) #18
  tail call void @gtk_toggle_button_set_active(ptr noundef %30, i32 noundef 1) #18
  %31 = getelementptr inbounds nuw i8, ptr %12, i64 576
  %32 = load ptr, ptr %31, align 8, !tbaa !171
  %33 = tail call ptr @g_type_check_instance_cast(ptr noundef %32, i64 noundef %27) #18
  tail call void @gtk_toggle_button_set_active(ptr noundef %33, i32 noundef 0) #18
  %34 = getelementptr inbounds nuw i8, ptr %12, i64 552
  %35 = and i64 %indvars.iv, 4294967295
  %36 = getelementptr inbounds nuw [5 x i32], ptr %34, i64 0, i64 %35
  %37 = load i32, ptr %36, align 4, !tbaa !77
  %38 = tail call ptr @dt_masks_create(i32 noundef %37) #18
  tail call void @dt_masks_change_form_gui(ptr noundef %38) #18
  %39 = load ptr, ptr getelementptr inbounds nuw (i8, ptr @darktable, i64 64), align 8, !tbaa !119
  %40 = getelementptr inbounds nuw i8, ptr %39, i64 2136
  %41 = load ptr, ptr %40, align 8, !tbaa !173
  %42 = getelementptr inbounds nuw i8, ptr %41, i64 184
  store ptr %2, ptr %42, align 8, !tbaa !178
  br i1 %.not32, label %47, label %50

43:                                               ; preds = %25, %43
  %indvars.iv38 = phi i64 [ 0, %25 ], [ %indvars.iv.next39, %43 ]
  %44 = getelementptr inbounds nuw [5 x ptr], ptr %19, i64 0, i64 %indvars.iv38
  %45 = load ptr, ptr %44, align 8, !tbaa !179
  %46 = tail call ptr @g_type_check_instance_cast(ptr noundef %45, i64 noundef %27) #18
  tail call void @gtk_toggle_button_set_active(ptr noundef %46, i32 noundef 0) #18
  %indvars.iv.next39 = add nuw nsw i64 %indvars.iv38, 1
  %exitcond41.not = icmp eq i64 %indvars.iv.next39, 5
  br i1 %exitcond41.not, label %28, label %43

47:                                               ; preds = %28
  %48 = getelementptr inbounds nuw i8, ptr %41, i64 172
  store i32 1, ptr %48, align 4, !tbaa !182
  %49 = getelementptr inbounds nuw i8, ptr %41, i64 192
  store ptr %2, ptr %49, align 8, !tbaa !183
  br label %50

50:                                               ; preds = %47, %28
  tail call void (...) @dt_control_queue_redraw_center() #18
  br label %.thread

.thread:                                          ; preds = %24, %50, %3, %7
  %.0 = phi i32 [ 1, %7 ], [ 1, %3 ], [ 1, %50 ], [ 0, %24 ]
  ret i32 %.0
}